; Function Attrs: nounwind sspstrong uwtable
define internal fastcc void @fd_trans_register(i32 noundef %fd, ptr noundef %trans) unnamed_addr #2 {
entry:
  %0 = load atomic i64, ptr @qemu_mutex_lock_func monotonic, align 8
  %1 = inttoptr i64 %0 to ptr
  tail call void %1(ptr noundef nonnull @target_fd_trans_lock, ptr noundef nonnull @.str.630, i32 noundef 122) #27
  %2 = load i32, ptr @target_fd_max, align 4
  %cmp.not.i = icmp ult i32 %fd, %2
  br i1 %cmp.not.i, label %glib_autoptr_cleanup_QemuLockable.exit, label %if.then.i

if.then.i:                                        ; preds = %entry
  %shr.i = and i32 %fd, -64
  %shl.i = add i32 %shr.i, 64
  store i32 %shl.i, ptr @target_fd_max, align 4
  %3 = load ptr, ptr @target_fd_trans, align 8
  %conv.i = zext i32 %shl.i to i64
  %call.i = tail call ptr @g_realloc_n(ptr noundef %3, i64 noundef %conv.i, i64 noundef 8) #27
  store ptr %call.i, ptr @target_fd_trans, align 8
  %idx.ext.i = zext i32 %2 to i64
  %add.ptr.i = getelementptr ptr, ptr %call.i, i64 %idx.ext.i
  %4 = load i32, ptr @target_fd_max, align 4
  %sub.i = sub i32 %4, %2
  %conv1.i = zext i32 %sub.i to i64
  %mul.i = shl nuw nsw i64 %conv1.i, 3
  tail call void @llvm.memset.p0.i64(ptr align 1 %add.ptr.i, i8 0, i64 %mul.i, i1 false)
  br label %glib_autoptr_cleanup_QemuLockable.exit

glib_autoptr_cleanup_QemuLockable.exit:           ; preds = %entry, %if.then.i
  %5 = load ptr, ptr @target_fd_trans, align 8
  %idxprom.i = sext i32 %fd to i64
  %arrayidx.i = getelementptr ptr, ptr %5, i64 %idxprom.i
  store ptr %trans, ptr %arrayidx.i, align 8
  tail call void @qemu_mutex_unlock_impl(ptr noundef nonnull @target_fd_trans_lock, ptr noundef nonnull @.str.630, i32 noundef 132) #27
  ret void
}